; Function Attrs: mustprogress nounwind uwtable
define dso_local void @_ZN4llvm17PredicateExpander22expandCheckNonPortableERNS_11raw_ostreamENS_9StringRefE(ptr nocapture noundef nonnull readonly align 8 dereferenceable(24) %0, ptr noundef nonnull align 8 dereferenceable(48) %1, ptr %2, i64 %3) local_unnamed_addr #0 align 2 {
  %5 = getelementptr inbounds nuw i8, ptr %0, i64 2
  %6 = load i8, ptr %5, align 2
  %7 = trunc i8 %6 to i1
  br i1 %7, label %8, label %22

8:                                                ; preds = %4
  %9 = getelementptr inbounds nuw i8, ptr %1, i64 24
  %10 = load ptr, ptr %9, align 8
  %11 = getelementptr inbounds nuw i8, ptr %1, i64 32
  %12 = load ptr, ptr %11, align 8
  %13 = ptrtoint ptr %10 to i64
  %14 = ptrtoint ptr %12 to i64
  %15 = sub i64 %13, %14
  %16 = icmp ult i64 %15, 5
  br i1 %16, label %17, label %19

17:                                               ; preds = %8
  %18 = tail call noundef nonnull align 8 dereferenceable(48) ptr @_ZN4llvm11raw_ostream5writeEPKcm(ptr noundef nonnull align 8 dereferenceable(48) %1, ptr noundef nonnull @.str.1, i64 noundef 5) #10
  br label %_ZN4llvm17PredicateExpander11expandFalseERNS_11raw_ostreamE.exit

19:                                               ; preds = %8
  tail call void @llvm.memcpy.p0.p0.i64(ptr noundef nonnull align 1 dereferenceable(5) %12, ptr noundef nonnull align 1 dereferenceable(5) @.str.1, i64 5, i1 false)
  %20 = load ptr, ptr %11, align 8
  %21 = getelementptr inbounds i8, ptr %20, i64 5
  store ptr %21, ptr %11, align 8
  br label %_ZN4llvm17PredicateExpander11expandFalseERNS_11raw_ostreamE.exit

22:                                               ; preds = %4
  %23 = getelementptr inbounds nuw i8, ptr %1, i64 32
  %24 = load ptr, ptr %23, align 8
  %25 = getelementptr inbounds nuw i8, ptr %1, i64 24
  %26 = load ptr, ptr %25, align 8
  %.not.i = icmp ult ptr %24, %26
  br i1 %.not.i, label %29, label %27

27:                                               ; preds = %22
  %28 = tail call noundef nonnull align 8 dereferenceable(48) ptr @_ZN4llvm11raw_ostream5writeEh(ptr noundef nonnull align 8 dereferenceable(48) %1, i8 noundef zeroext 40) #10
  br label %_ZN4llvm11raw_ostreamlsEc.exit

29:                                               ; preds = %22
  %30 = getelementptr inbounds i8, ptr %24, i64 1
  store ptr %30, ptr %23, align 8
  store i8 40, ptr %24, align 1
  br label %_ZN4llvm11raw_ostreamlsEc.exit

_ZN4llvm11raw_ostreamlsEc.exit:                   ; preds = %27, %29
  %.0.i = phi ptr [ %28, %27 ], [ %1, %29 ]
  %31 = getelementptr inbounds nuw i8, ptr %.0.i, i64 24
  %32 = load ptr, ptr %31, align 8
  %33 = getelementptr inbounds nuw i8, ptr %.0.i, i64 32
  %34 = load ptr, ptr %33, align 8
  %35 = ptrtoint ptr %32 to i64
  %36 = ptrtoint ptr %34 to i64
  %37 = sub i64 %35, %36
  %38 = icmp ugt i64 %3, %37
  br i1 %38, label %39, label %41

39:                                               ; preds = %_ZN4llvm11raw_ostreamlsEc.exit
  %40 = tail call noundef nonnull align 8 dereferenceable(48) ptr @_ZN4llvm11raw_ostream5writeEPKcm(ptr noundef nonnull align 8 dereferenceable(48) %.0.i, ptr noundef %2, i64 noundef %3) #10
  %.phi.trans.insert = getelementptr inbounds nuw i8, ptr %40, i64 32
  %.pre = load ptr, ptr %.phi.trans.insert, align 8
  br label %_ZN4llvm11raw_ostreamlsENS_9StringRefE.exit

41:                                               ; preds = %_ZN4llvm11raw_ostreamlsEc.exit
  %.not.i5 = icmp eq i64 %3, 0
  br i1 %.not.i5, label %_ZN4llvm11raw_ostreamlsENS_9StringRefE.exit, label %42

42:                                               ; preds = %41
  tail call void @llvm.memcpy.p0.p0.i64(ptr align 1 %34, ptr align 1 %2, i64 %3, i1 false)
  %43 = load ptr, ptr %33, align 8
  %44 = getelementptr inbounds i8, ptr %43, i64 %3
  store ptr %44, ptr %33, align 8
  br label %_ZN4llvm11raw_ostreamlsENS_9StringRefE.exit

_ZN4llvm11raw_ostreamlsENS_9StringRefE.exit:      ; preds = %39, %41, %42
  %45 = phi ptr [ %.pre, %39 ], [ %44, %42 ], [ %34, %41 ]
  %.0.i6 = phi ptr [ %40, %39 ], [ %.0.i, %42 ], [ %.0.i, %41 ]
  %46 = getelementptr inbounds nuw i8, ptr %.0.i6, i64 24
  %47 = load ptr, ptr %46, align 8
  %.not.i7 = icmp ult ptr %45, %47
  br i1 %.not.i7, label %50, label %48

48:                                               ; preds = %_ZN4llvm11raw_ostreamlsENS_9StringRefE.exit
  %49 = tail call noundef nonnull align 8 dereferenceable(48) ptr @_ZN4llvm11raw_ostream5writeEh(ptr noundef nonnull align 8 dereferenceable(48) %.0.i6, i8 noundef zeroext 41) #10
  br label %_ZN4llvm17PredicateExpander11expandFalseERNS_11raw_ostreamE.exit

50:                                               ; preds = %_ZN4llvm11raw_ostreamlsENS_9StringRefE.exit
  %51 = getelementptr inbounds nuw i8, ptr %.0.i6, i64 32
  %52 = getelementptr inbounds i8, ptr %45, i64 1
  store ptr %52, ptr %51, align 8
  store i8 41, ptr %45, align 1
  br label %_ZN4llvm17PredicateExpander11expandFalseERNS_11raw_ostreamE.exit

_ZN4llvm17PredicateExpander11expandFalseERNS_11raw_ostreamE.exit: ; preds = %50, %48, %19, %17
  ret void
}